target datalayout = "e-m:e-p270:32:32-p271:32:32-p272:64:64-i64:64-i128:128-f80:128-n8:16:32:64-S128"
target triple = "x86_64-pc-linux-gnu"

%struct.hb_object_header_t = type { %struct.hb_reference_count_t, %struct.hb_atomic_int_t, %struct.hb_atomic_ptr_t }
%struct.hb_reference_count_t = type { %struct.hb_atomic_int_t }
%struct.hb_atomic_int_t = type { i32 }
%struct.hb_atomic_ptr_t = type { ptr }
%struct.hb_segment_properties_t = type { i32, i32, ptr, ptr, ptr }
%struct.hb_buffer_t = type <{ %struct.hb_object_header_t, ptr, i32, i32, i32, i32, i32, i32, %struct.hb_segment_properties_t, i8, i8, i8, i8, i32, i32, i32, i32, [4 x i8], ptr, ptr, ptr, [2 x [5 x i32]], [2 x i32], i8, i8, [2 x i8], i32, i32, i32, ptr, ptr, ptr, i32, [4 x i8] }>

; Function Attrs: mustprogress uwtable
define hidden void @_ZN11hb_buffer_t7similarERKS_(ptr noundef nonnull align 8 dereferenceable(220) %0, ptr noundef nonnull align 8 dereferenceable(220) %1) #1 align 2 {
  %3 = alloca ptr, align 8
  %4 = alloca ptr, align 8
  store ptr %0, ptr %3, align 8
  store ptr %1, ptr %4, align 8
  %5 = load ptr, ptr %3, align 8
  %6 = getelementptr inbounds %struct.hb_buffer_t, ptr %5, i32 0, i32 1
  %7 = load ptr, ptr %6, align 8
  call void @hb_unicode_funcs_destroy(ptr noundef %7)
  %8 = load ptr, ptr %4, align 8
  %9 = getelementptr inbounds %struct.hb_buffer_t, ptr %8, i32 0, i32 1
  %10 = load ptr, ptr %9, align 8
  %11 = call ptr @hb_unicode_funcs_reference(ptr noundef %10)
  %12 = getelementptr inbounds %struct.hb_buffer_t, ptr %5, i32 0, i32 1
  store ptr %11, ptr %12, align 8
  %13 = load ptr, ptr %4, align 8
  %14 = getelementptr inbounds %struct.hb_buffer_t, ptr %13, i32 0, i32 2
  %15 = load i32, ptr %14, align 8
  %16 = getelementptr inbounds %struct.hb_buffer_t, ptr %5, i32 0, i32 2
  store i32 %15, ptr %16, align 8
  %17 = load ptr, ptr %4, align 8
  %18 = getelementptr inbounds %struct.hb_buffer_t, ptr %17, i32 0, i32 3
  %19 = load i32, ptr %18, align 4
  %20 = getelementptr inbounds %struct.hb_buffer_t, ptr %5, i32 0, i32 3
  store i32 %19, ptr %20, align 4
  %21 = load ptr, ptr %4, align 8
  %22 = getelementptr inbounds %struct.hb_buffer_t, ptr %21, i32 0, i32 4
  %23 = load i32, ptr %22, align 8
  %24 = getelementptr inbounds %struct.hb_buffer_t, ptr %5, i32 0, i32 4
  store i32 %23, ptr %24, align 8
  %25 = load ptr, ptr %4, align 8
  %26 = getelementptr inbounds %struct.hb_buffer_t, ptr %25, i32 0, i32 5
  %27 = load i32, ptr %26, align 4
  %28 = getelementptr inbounds %struct.hb_buffer_t, ptr %5, i32 0, i32 5
  store i32 %27, ptr %28, align 4
  %29 = load ptr, ptr %4, align 8
  %30 = getelementptr inbounds %struct.hb_buffer_t, ptr %29, i32 0, i32 6
  %31 = load i32, ptr %30, align 8
  %32 = getelementptr inbounds %struct.hb_buffer_t, ptr %5, i32 0, i32 6
  store i32 %31, ptr %32, align 8
  ret void
}