; Function Attrs: mustprogress uwtable
define hidden void @_ZN11hb_buffer_t7similarERKS_(ptr nocapture noundef nonnull align 8 dereferenceable(220) %0, ptr nocapture noundef nonnull readonly align 8 dereferenceable(220) %1) local_unnamed_addr #5 align 2 {
  %3 = getelementptr inbounds i8, ptr %0, i64 16
  %4 = load ptr, ptr %3, align 8
  tail call void @hb_unicode_funcs_destroy(ptr noundef %4)
  %5 = getelementptr inbounds i8, ptr %1, i64 16
  %6 = load ptr, ptr %5, align 8
  %7 = tail call ptr @hb_unicode_funcs_reference(ptr noundef %6)
  store ptr %7, ptr %3, align 8
  %8 = getelementptr inbounds i8, ptr %1, i64 24
  %9 = load i32, ptr %8, align 8
  %10 = getelementptr inbounds i8, ptr %0, i64 24
  store i32 %9, ptr %10, align 8
  %11 = getelementptr inbounds i8, ptr %1, i64 28
  %12 = load i32, ptr %11, align 4
  %13 = getelementptr inbounds i8, ptr %0, i64 28
  store i32 %12, ptr %13, align 4
  %14 = getelementptr inbounds i8, ptr %1, i64 32
  %15 = load i32, ptr %14, align 8
  %16 = getelementptr inbounds i8, ptr %0, i64 32
  store i32 %15, ptr %16, align 8
  %17 = getelementptr inbounds i8, ptr %1, i64 36
  %18 = load i32, ptr %17, align 4
  %19 = getelementptr inbounds i8, ptr %0, i64 36
  store i32 %18, ptr %19, align 4
  %20 = getelementptr inbounds i8, ptr %1, i64 40
  %21 = load i32, ptr %20, align 8
  %22 = getelementptr inbounds i8, ptr %0, i64 40
  store i32 %21, ptr %22, align 8
  ret void
}